; Function Attrs: nounwind sspstrong uwtable
define dso_local void @tcg_gen_div_i64(ptr noundef %0, ptr noundef %1, ptr noundef %2) local_unnamed_addr #2 {
  %4 = tail call ptr @tcg_temp_ebb_new_i64() #6
  %5 = tail call ptr @tcg_constant_i64(i64 noundef 63) #6
  %6 = tail call align 8 ptr @llvm.threadlocal.address.p0(ptr align 8 @tcg_ctx)
  %7 = load ptr, ptr %6, align 8
  %8 = ptrtoint ptr %4 to i64
  %9 = getelementptr inbounds nuw i8, ptr %7, i64 %8
  %10 = ptrtoint ptr %9 to i64
  %11 = ptrtoint ptr %1 to i64
  %12 = getelementptr inbounds nuw i8, ptr %7, i64 %11
  %13 = ptrtoint ptr %12 to i64
  %14 = ptrtoint ptr %5 to i64
  %15 = getelementptr inbounds nuw i8, ptr %7, i64 %14
  %16 = ptrtoint ptr %15 to i64
  %17 = tail call ptr @tcg_gen_op3(i32 noundef 92, i32 noundef 1, i64 noundef %10, i64 noundef %13, i64 noundef %16)
  %18 = load ptr, ptr %6, align 8
  %19 = ptrtoint ptr %0 to i64
  %20 = getelementptr inbounds nuw i8, ptr %18, i64 %19
  %21 = ptrtoint ptr %20 to i64
  %22 = getelementptr inbounds nuw i8, ptr %18, i64 %8
  %23 = ptrtoint ptr %22 to i64
  %24 = getelementptr inbounds nuw i8, ptr %18, i64 %11
  %25 = ptrtoint ptr %24 to i64
  %26 = ptrtoint ptr %2 to i64
  %27 = getelementptr inbounds nuw i8, ptr %18, i64 %26
  %28 = ptrtoint ptr %27 to i64
  %29 = tail call ptr @tcg_gen_op5(i32 noundef 85, i32 noundef 1, i64 noundef %21, i64 noundef %23, i64 noundef %25, i64 noundef %23, i64 noundef %28)
  tail call void @tcg_temp_free_i64(ptr noundef %4) #6
  ret void
}